target datalayout = "e-m:e-p270:32:32-p271:32:32-p272:64:64-i64:64-i128:128-f80:128-n8:16:32:64-S128"
target triple = "x86_64-pc-linux-gnu"

%struct.dt_iop_lut3d_params_t = type { [512 x i8], i32, i32, i32, [12288 x i8], [128 x i8] }
%struct.dt_dev_pixelpipe_iop_t = type { ptr, ptr, ptr, ptr, i32, i32, %struct.dt_dev_histogram_collection_params_t, ptr, %struct.dt_dev_histogram_stats_t, [4 x i32], float, i32, i32, i64, i32, i32, %struct.dt_iop_roi_t, %struct.dt_iop_roi_t, %struct.dt_iop_roi_t, %struct.dt_iop_roi_t, i32, i32, %struct.dt_iop_buffer_dsc_t, %struct.dt_iop_buffer_dsc_t, ptr, [8 x i8] }
%struct.dt_dev_histogram_collection_params_t = type { ptr, i32 }
%struct.dt_dev_histogram_stats_t = type { i32, i64, i32, i32 }
%struct.dt_iop_roi_t = type { i32, i32, i32, i32, float }
%struct.dt_iop_buffer_dsc_t = type { i32, i32, i32, [6 x [6 x i8]], %struct.anon, [12 x i8], %struct.anon.0, [4 x float], i32, [12 x i8] }
%struct.anon = type { i16, i16 }
%struct.anon.0 = type { i32, [12 x i8], [4 x float] }
%struct.dt_iop_lut3d_data_t = type { %struct.dt_iop_lut3d_params_t, ptr, i16 }

@.str.76 = private unnamed_addr constant [5 x i8] c".png\00", align 1
@.str.77 = private unnamed_addr constant [6 x i8] c".cube\00", align 1
@.str.78 = private unnamed_addr constant [5 x i8] c".3dl\00", align 1
@.str.80 = private unnamed_addr constant [32 x i8] c"plugins/darkroom/lut3d/def_path\00", align 1
@.str.124 = private unnamed_addr constant [5 x i8] c".PNG\00", align 1
@.str.125 = private unnamed_addr constant [6 x i8] c".CUBE\00", align 1
@.str.126 = private unnamed_addr constant [5 x i8] c".3DL\00", align 1

; Function Attrs: nounwind uwtable
define internal i32 @calculate_clut(ptr noundef %0, ptr noundef %1) #0 {
  %3 = alloca ptr, align 8
  %4 = alloca ptr, align 8
  %5 = alloca i16, align 2
  %6 = alloca ptr, align 8
  %7 = alloca ptr, align 8
  %8 = alloca ptr, align 8
  store ptr %0, ptr %3, align 8, !tbaa !43
  store ptr %1, ptr %4, align 8, !tbaa !45
  call void @llvm.lifetime.start.p0(i64 2, ptr %5) #13
  store i16 0, ptr %5, align 2, !tbaa !37
  call void @llvm.lifetime.start.p0(i64 8, ptr %6) #13
  %9 = load ptr, ptr %3, align 8, !tbaa !43
  %10 = getelementptr inbounds nuw %struct.dt_iop_lut3d_params_t, ptr %9, i32 0, i32 0
  %11 = getelementptr inbounds [512 x i8], ptr %10, i64 0, i64 0
  store ptr %11, ptr %6, align 8, !tbaa !41
  %12 = load ptr, ptr %3, align 8, !tbaa !43
  %13 = getelementptr inbounds nuw %struct.dt_iop_lut3d_params_t, ptr %12, i32 0, i32 3
  %14 = load i32, ptr %13, align 4, !tbaa !83
  %15 = icmp ne i32 %14, 0
  br i1 %15, label %16, label %28

16:                                               ; preds = %2
  %17 = load ptr, ptr %6, align 8, !tbaa !41
  %18 = getelementptr inbounds i8, ptr %17, i64 0
  %19 = load i8, ptr %18, align 1, !tbaa !47
  %20 = sext i8 %19 to i32
  %21 = icmp ne i32 %20, 0
  br i1 %21, label %22, label %28

22:                                               ; preds = %16
  %23 = load ptr, ptr %3, align 8, !tbaa !43
  %24 = load ptr, ptr %6, align 8, !tbaa !41
  %25 = load ptr, ptr %4, align 8, !tbaa !45
  %26 = call zeroext i8 @calculate_clut_compressed(ptr noundef %23, ptr noundef %24, ptr noundef %25)
  %27 = zext i8 %26 to i16
  store i16 %27, ptr %5, align 2, !tbaa !37
  br label %87

28:                                               ; preds = %16, %2
  call void @llvm.lifetime.start.p0(i64 8, ptr %7) #13
  %29 = call ptr @dt_conf_get_string(ptr noundef @.str.80)
  store ptr %29, ptr %7, align 8, !tbaa !41
  %30 = load ptr, ptr %6, align 8, !tbaa !41
  %31 = getelementptr inbounds i8, ptr %30, i64 0
  %32 = load i8, ptr %31, align 1, !tbaa !47
  %33 = sext i8 %32 to i32
  %34 = icmp ne i32 %33, 0
  br i1 %34, label %35, label %85

35:                                               ; preds = %28
  %36 = load ptr, ptr %7, align 8, !tbaa !41
  %37 = getelementptr inbounds i8, ptr %36, i64 0
  %38 = load i8, ptr %37, align 1, !tbaa !47
  %39 = sext i8 %38 to i32
  %40 = icmp ne i32 %39, 0
  br i1 %40, label %41, label %85

41:                                               ; preds = %35
  call void @llvm.lifetime.start.p0(i64 8, ptr %8) #13
  %42 = load ptr, ptr %7, align 8, !tbaa !41
  %43 = load ptr, ptr %6, align 8, !tbaa !41
  %44 = call noalias ptr (ptr, ...) @g_build_filename(ptr noundef %42, ptr noundef %43, ptr noundef null)
  store ptr %44, ptr %8, align 8, !tbaa !41
  %45 = load ptr, ptr %6, align 8, !tbaa !41
  %46 = call i32 @g_str_has_suffix(ptr noundef %45, ptr noundef @.str.76)
  %47 = icmp ne i32 %46, 0
  br i1 %47, label %52, label %48

48:                                               ; preds = %41
  %49 = load ptr, ptr %6, align 8, !tbaa !41
  %50 = call i32 @g_str_has_suffix(ptr noundef %49, ptr noundef @.str.124)
  %51 = icmp ne i32 %50, 0
  br i1 %51, label %52, label %57

52:                                               ; preds = %48, %41
  %53 = load ptr, ptr %3, align 8, !tbaa !43
  %54 = load ptr, ptr %8, align 8, !tbaa !41
  %55 = load ptr, ptr %4, align 8, !tbaa !45
  %56 = call zeroext i16 @calculate_clut_haldclut(ptr noundef %53, ptr noundef %54, ptr noundef %55)
  store i16 %56, ptr %5, align 2, !tbaa !37
  br label %83

57:                                               ; preds = %48
  %58 = load ptr, ptr %6, align 8, !tbaa !41
  %59 = call i32 @g_str_has_suffix(ptr noundef %58, ptr noundef @.str.77)
  %60 = icmp ne i32 %59, 0
  br i1 %60, label %65, label %61

61:                                               ; preds = %57
  %62 = load ptr, ptr %6, align 8, !tbaa !41
  %63 = call i32 @g_str_has_suffix(ptr noundef %62, ptr noundef @.str.125)
  %64 = icmp ne i32 %63, 0
  br i1 %64, label %65, label %69

65:                                               ; preds = %61, %57
  %66 = load ptr, ptr %8, align 8, !tbaa !41
  %67 = load ptr, ptr %4, align 8, !tbaa !45
  %68 = call zeroext i16 @calculate_clut_cube(ptr noundef %66, ptr noundef %67)
  store i16 %68, ptr %5, align 2, !tbaa !37
  br label %82

69:                                               ; preds = %61
  %70 = load ptr, ptr %6, align 8, !tbaa !41
  %71 = call i32 @g_str_has_suffix(ptr noundef %70, ptr noundef @.str.78)
  %72 = icmp ne i32 %71, 0
  br i1 %72, label %77, label %73

73:                                               ; preds = %69
  %74 = load ptr, ptr %6, align 8, !tbaa !41
  %75 = call i32 @g_str_has_suffix(ptr noundef %74, ptr noundef @.str.126)
  %76 = icmp ne i32 %75, 0
  br i1 %76, label %77, label %81

77:                                               ; preds = %73, %69
  %78 = load ptr, ptr %8, align 8, !tbaa !41
  %79 = load ptr, ptr %4, align 8, !tbaa !45
  %80 = call zeroext i16 @calculate_clut_3dl(ptr noundef %78, ptr noundef %79)
  store i16 %80, ptr %5, align 2, !tbaa !37
  br label %81

81:                                               ; preds = %77, %73
  br label %82

82:                                               ; preds = %81, %65
  br label %83

83:                                               ; preds = %82, %52
  %84 = load ptr, ptr %8, align 8, !tbaa !41
  call void @g_free(ptr noundef %84)
  call void @llvm.lifetime.end.p0(i64 8, ptr %8) #13
  br label %85

85:                                               ; preds = %83, %35, %28
  %86 = load ptr, ptr %7, align 8, !tbaa !41
  call void @g_free(ptr noundef %86)
  call void @llvm.lifetime.end.p0(i64 8, ptr %7) #13
  br label %87

87:                                               ; preds = %85, %22
  %88 = load i16, ptr %5, align 2, !tbaa !37
  %89 = zext i16 %88 to i32
  call void @llvm.lifetime.end.p0(i64 8, ptr %6) #13
  call void @llvm.lifetime.end.p0(i64 2, ptr %5) #13
  ret i32 %89
}

; Function Attrs: nounwind uwtable
define void @commit_params(ptr noundef %0, ptr noundef %1, ptr noundef %2, ptr noundef %3) #0 {
  %5 = alloca ptr, align 8
  %6 = alloca ptr, align 8
  %7 = alloca ptr, align 8
  %8 = alloca ptr, align 8
  %9 = alloca ptr, align 8
  %10 = alloca ptr, align 8
  store ptr %0, ptr %5, align 8, !tbaa !6
  store ptr %1, ptr %6, align 8, !tbaa !15
  store ptr %2, ptr %7, align 8, !tbaa !11
  store ptr %3, ptr %8, align 8, !tbaa !13
  call void @llvm.lifetime.start.p0(i64 8, ptr %9) #13
  %11 = load ptr, ptr %6, align 8, !tbaa !15
  store ptr %11, ptr %9, align 8, !tbaa !43
  call void @llvm.lifetime.start.p0(i64 8, ptr %10) #13
  %12 = load ptr, ptr %8, align 8, !tbaa !13
  %13 = getelementptr inbounds nuw %struct.dt_dev_pixelpipe_iop_t, ptr %12, i32 0, i32 2
  %14 = load ptr, ptr %13, align 16, !tbaa !100
  store ptr %14, ptr %10, align 8, !tbaa !110
  %15 = load ptr, ptr %9, align 8, !tbaa !43
  %16 = getelementptr inbounds nuw %struct.dt_iop_lut3d_params_t, ptr %15, i32 0, i32 0
  %17 = getelementptr inbounds [512 x i8], ptr %16, i64 0, i64 0
  %18 = load ptr, ptr %10, align 8, !tbaa !110
  %19 = getelementptr inbounds nuw %struct.dt_iop_lut3d_data_t, ptr %18, i32 0, i32 0
  %20 = getelementptr inbounds nuw %struct.dt_iop_lut3d_params_t, ptr %19, i32 0, i32 0
  %21 = getelementptr inbounds [512 x i8], ptr %20, i64 0, i64 0
  %22 = call i32 @strcmp(ptr noundef %17, ptr noundef %21) #15
  %23 = icmp ne i32 %22, 0
  br i1 %23, label %34, label %24

24:                                               ; preds = %4
  %25 = load ptr, ptr %9, align 8, !tbaa !43
  %26 = getelementptr inbounds nuw %struct.dt_iop_lut3d_params_t, ptr %25, i32 0, i32 5
  %27 = getelementptr inbounds [128 x i8], ptr %26, i64 0, i64 0
  %28 = load ptr, ptr %10, align 8, !tbaa !110
  %29 = getelementptr inbounds nuw %struct.dt_iop_lut3d_data_t, ptr %28, i32 0, i32 0
  %30 = getelementptr inbounds nuw %struct.dt_iop_lut3d_params_t, ptr %29, i32 0, i32 5
  %31 = getelementptr inbounds [128 x i8], ptr %30, i64 0, i64 0
  %32 = call i32 @strcmp(ptr noundef %27, ptr noundef %31) #15
  %33 = icmp ne i32 %32, 0
  br i1 %33, label %34, label %55

34:                                               ; preds = %24, %4
  %35 = load ptr, ptr %10, align 8, !tbaa !110
  %36 = getelementptr inbounds nuw %struct.dt_iop_lut3d_data_t, ptr %35, i32 0, i32 1
  %37 = load ptr, ptr %36, align 8, !tbaa !115
  %38 = icmp ne ptr %37, null
  br i1 %38, label %39, label %47

39:                                               ; preds = %34
  %40 = load ptr, ptr %10, align 8, !tbaa !110
  %41 = getelementptr inbounds nuw %struct.dt_iop_lut3d_data_t, ptr %40, i32 0, i32 1
  %42 = load ptr, ptr %41, align 8, !tbaa !115
  call void @free(ptr noundef %42) #13
  %43 = load ptr, ptr %10, align 8, !tbaa !110
  %44 = getelementptr inbounds nuw %struct.dt_iop_lut3d_data_t, ptr %43, i32 0, i32 1
  store ptr null, ptr %44, align 8, !tbaa !115
  %45 = load ptr, ptr %10, align 8, !tbaa !110
  %46 = getelementptr inbounds nuw %struct.dt_iop_lut3d_data_t, ptr %45, i32 0, i32 2
  store i16 0, ptr %46, align 8, !tbaa !117
  br label %47

47:                                               ; preds = %39, %34
  %48 = load ptr, ptr %9, align 8, !tbaa !43
  %49 = load ptr, ptr %10, align 8, !tbaa !110
  %50 = getelementptr inbounds nuw %struct.dt_iop_lut3d_data_t, ptr %49, i32 0, i32 1
  %51 = call i32 @calculate_clut(ptr noundef %48, ptr noundef %50)
  %52 = trunc i32 %51 to i16
  %53 = load ptr, ptr %10, align 8, !tbaa !110
  %54 = getelementptr inbounds nuw %struct.dt_iop_lut3d_data_t, ptr %53, i32 0, i32 2
  store i16 %52, ptr %54, align 8, !tbaa !117
  br label %55

55:                                               ; preds = %47, %24
  %56 = load ptr, ptr %10, align 8, !tbaa !110
  %57 = getelementptr inbounds nuw %struct.dt_iop_lut3d_data_t, ptr %56, i32 0, i32 0
  %58 = load ptr, ptr %9, align 8, !tbaa !43
  call void @llvm.memcpy.p0.p0.i64(ptr align 8 %57, ptr align 4 %58, i64 12940, i1 false)
  call void @llvm.lifetime.end.p0(i64 8, ptr %10) #13
  call void @llvm.lifetime.end.p0(i64 8, ptr %9) #13
  ret void
}