; Function Attrs: nounwind uwtable
define void @commit_params(ptr noundef readnone captures(none) %0, ptr noundef %1, ptr noundef readnone captures(none) %2, ptr noundef readonly captures(none) %3) local_unnamed_addr #1 {
  %5 = getelementptr inbounds nuw i8, ptr %3, i64 16
  %6 = load ptr, ptr %5, align 16, !tbaa !76
  %7 = tail call i32 @strcmp(ptr noundef nonnull dereferenceable(1) %1, ptr noundef nonnull dereferenceable(1) %6) #27
  %.not = icmp eq i32 %7, 0
  br i1 %.not, label %8, label %12

8:                                                ; preds = %4
  %9 = getelementptr inbounds nuw i8, ptr %1, i64 12812
  %10 = getelementptr inbounds nuw i8, ptr %6, i64 12812
  %11 = tail call i32 @strcmp(ptr noundef nonnull dereferenceable(1) %9, ptr noundef nonnull dereferenceable(1) %10) #27
  %.not15 = icmp eq i32 %11, 0
  br i1 %.not15, label %52, label %12

12:                                               ; preds = %8, %4
  %13 = getelementptr inbounds nuw i8, ptr %6, i64 12944
  %14 = load ptr, ptr %13, align 8, !tbaa !92
  %.not16 = icmp eq ptr %14, null
  br i1 %.not16, label %17, label %15

15:                                               ; preds = %12
  tail call void @free(ptr noundef nonnull %14) #25
  store ptr null, ptr %13, align 8, !tbaa !92
  %16 = getelementptr inbounds nuw i8, ptr %6, i64 12952
  store i16 0, ptr %16, align 8, !tbaa !94
  br label %17

17:                                               ; preds = %15, %12
  %18 = getelementptr inbounds nuw i8, ptr %1, i64 520
  %19 = load i32, ptr %18, align 4, !tbaa !20
  %.not.i = icmp eq i32 %19, 0
  br i1 %.not.i, label %25, label %20

20:                                               ; preds = %17
  %21 = load i8, ptr %1, align 1, !tbaa !73
  %.not25.i = icmp eq i8 %21, 0
  br i1 %.not25.i, label %25, label %22

22:                                               ; preds = %20
  %23 = tail call zeroext i8 @calculate_clut_compressed(ptr noundef nonnull %1, ptr nonnull poison, ptr noundef nonnull %13)
  %24 = zext i8 %23 to i16
  br label %calculate_clut.exit

25:                                               ; preds = %20, %17
  %26 = tail call ptr @dt_conf_get_string(ptr noundef nonnull @.str.80) #25
  %27 = load i8, ptr %1, align 1, !tbaa !73
  %.not26.i = icmp eq i8 %27, 0
  br i1 %.not26.i, label %50, label %28

28:                                               ; preds = %25
  %29 = load i8, ptr %26, align 1, !tbaa !73
  %.not27.i = icmp eq i8 %29, 0
  br i1 %.not27.i, label %50, label %30

30:                                               ; preds = %28
  %31 = tail call noalias ptr (ptr, ...) @g_build_filename(ptr noundef nonnull %26, ptr noundef nonnull %1, ptr noundef null) #25
  %32 = tail call i32 @g_str_has_suffix(ptr noundef nonnull %1, ptr noundef nonnull @.str.76) #25
  %.not28.i = icmp eq i32 %32, 0
  br i1 %.not28.i, label %33, label %35

33:                                               ; preds = %30
  %34 = tail call i32 @g_str_has_suffix(ptr noundef nonnull %1, ptr noundef nonnull @.str.124) #25
  %.not29.i = icmp eq i32 %34, 0
  br i1 %.not29.i, label %37, label %35

35:                                               ; preds = %33, %30
  %36 = tail call zeroext i16 @calculate_clut_haldclut(ptr nonnull poison, ptr noundef %31, ptr noundef nonnull %13)
  br label %49

37:                                               ; preds = %33
  %38 = tail call i32 @g_str_has_suffix(ptr noundef nonnull %1, ptr noundef nonnull @.str.77) #25
  %.not30.i = icmp eq i32 %38, 0
  br i1 %.not30.i, label %39, label %41

39:                                               ; preds = %37
  %40 = tail call i32 @g_str_has_suffix(ptr noundef nonnull %1, ptr noundef nonnull @.str.125) #25
  %.not31.i = icmp eq i32 %40, 0
  br i1 %.not31.i, label %43, label %41

41:                                               ; preds = %39, %37
  %42 = tail call zeroext i16 @calculate_clut_cube(ptr noundef %31, ptr noundef nonnull %13)
  br label %49

43:                                               ; preds = %39
  %44 = tail call i32 @g_str_has_suffix(ptr noundef nonnull %1, ptr noundef nonnull @.str.78) #25
  %.not32.i = icmp eq i32 %44, 0
  br i1 %.not32.i, label %45, label %47

45:                                               ; preds = %43
  %46 = tail call i32 @g_str_has_suffix(ptr noundef nonnull %1, ptr noundef nonnull @.str.126) #25
  %.not33.i = icmp eq i32 %46, 0
  br i1 %.not33.i, label %49, label %47

47:                                               ; preds = %45, %43
  %48 = tail call zeroext i16 @calculate_clut_3dl(ptr noundef %31, ptr noundef nonnull %13)
  br label %49

49:                                               ; preds = %47, %45, %41, %35
  %.2.i = phi i16 [ %36, %35 ], [ %42, %41 ], [ %48, %47 ], [ 0, %45 ]
  tail call void @g_free(ptr noundef %31) #25
  br label %50

50:                                               ; preds = %49, %28, %25
  %.1.i = phi i16 [ %.2.i, %49 ], [ 0, %28 ], [ 0, %25 ]
  tail call void @g_free(ptr noundef %26) #25
  br label %calculate_clut.exit

calculate_clut.exit:                              ; preds = %22, %50
  %.0.i = phi i16 [ %24, %22 ], [ %.1.i, %50 ]
  %51 = getelementptr inbounds nuw i8, ptr %6, i64 12952
  store i16 %.0.i, ptr %51, align 8, !tbaa !94
  br label %52

52:                                               ; preds = %calculate_clut.exit, %8
  tail call void @llvm.memcpy.p0.p0.i64(ptr noundef nonnull align 8 dereferenceable(12940) %6, ptr noundef nonnull align 4 dereferenceable(12940) %1, i64 12940, i1 false)
  ret void
}